(lp1
S'DEFAULT'
p2
aF0.0030000000000000001
a(lp3
F0.00014999999999999999
aF2.0000000000000002e-05
aF1.0000000000000001e-05
aF5.0000000000000004e-06
aF1.9999999999999999e-06
aaF0.25
a(lp4
(lp5
F0
aF0.14999999999999999
aF0.69999999999999996
aF0.14999999999999999
aa(lp6
F0.14999999999999999
aF0
aF0.14999999999999999
aF0.69999999999999996
aa(lp7
F0.69999999999999996
aF0.14999999999999999
aF0
aF0.14999999999999999
aa(lp8
F0.14999999999999999
aF0.69999999999999996
aF0.14999999999999999
aF0
aaa.