(lp1
S'ALL_INDEL'
p2
aF0
a(lp3
F0.001
aF0.00050000000000000001
aF0.00029999999999999997
aF0.00020000000000000001
aF0.00018000000000000001
aF0.00016000000000000001
aF0.00013999999999999999
aF0.00012
aF0.0001
aF0.0001
aF0.0001
aF0.0001
aaF0.25
a(lp4
(lp5
F0
aF0.14999999999999999
aF0.69999999999999996
aF0.14999999999999999
aa(lp6
F0.14999999999999999
aF0
aF0.14999999999999999
aF0.69999999999999996
aa(lp7
F0.69999999999999996
aF0.14999999999999999
aF0
aF0.14999999999999999
aa(lp8
F0.14999999999999999
aF0.69999999999999996
aF0.14999999999999999
aF0
aaa.