(lp1
(lp2
(lp3
F0
aF0.33329999999999999
aF0.33329999999999999
aF0.33339999999999997
aa(lp4
F0.33329999999999999
aF0
aF0.33329999999999999
aF0.33339999999999997
aa(lp5
F0.33329999999999999
aF0.33329999999999999
aF0
aF0.33339999999999997
aa(lp6
F0.33329999999999999
aF0.33329999999999999
aF0.33339999999999997
aF0
aaa.