(lp1
(lp2
(lp3
F0
aF0.050000000000000003
aF0.050000000000000003
aF0.90000000000000002
aa(lp4
F0.050000000000000003
aF0
aF0.90000000000000002
aF0.050000000000000003
aa(lp5
F0.050000000000000003
aF0.90000000000000002
aF0
aF0.050000000000000003
aa(lp6
F0.90000000000000002
aF0.050000000000000003
aF0.050000000000000003
aF0
aaa.