(lp1
(lp2
(lp3
F0
aF0.14999999999999999
aF0.69999999999999996
aF0.14999999999999999
aa(lp4
F0.14999999999999999
aF0
aF0.14999999999999999
aF0.69999999999999996
aa(lp5
F0.69999999999999996
aF0.14999999999999999
aF0
aF0.14999999999999999
aa(lp6
F0.14999999999999999
aF0.69999999999999996
aF0.14999999999999999
aF0
aaa.