(lp1
(lp2
(lp3
F0
aF0.49180000000000001
aF0.3377
aF0.17050000000000001
aa(lp4
F0.52380000000000004
aF0
aF0.2661
aF0.21010000000000001
aa(lp5
F0.37540000000000001
aF0.23549999999999999
aF0
aF0.38900000000000001
aa(lp6
F0.2505
aF0.25519999999999998
aF0.49419999999999997
aF0
aaa.